; Function Attrs: nofree norecurse nosync nounwind memory(argmem: read) uwtable
define range(i32 1, -2147483648) i32 @Lpk_SuppDelay(i32 noundef %0, ptr noundef readonly captures(none) %1) local_unnamed_addr #8 {
  br label %3

3:                                                ; preds = %2, %11
  %indvars.iv = phi i64 [ 0, %2 ], [ %indvars.iv.next, %11 ]
  %.078 = phi i32 [ 0, %2 ], [ %.1, %11 ]
  %4 = trunc nuw nsw i64 %indvars.iv to i32
  %5 = shl nuw nsw i32 1, %4
  %6 = and i32 %5, %0
  %.not = icmp eq i32 %6, 0
  br i1 %.not, label %11, label %7

7:                                                ; preds = %3
  %8 = getelementptr inbounds nuw i32, ptr %1, i64 %indvars.iv
  %9 = load i32, ptr %8, align 4, !tbaa !14
  %10 = tail call noundef i32 @llvm.smax.i32(i32 %.078, i32 %9)
  br label %11

11:                                               ; preds = %7, %3
  %.1 = phi i32 [ %10, %7 ], [ %.078, %3 ]
  %indvars.iv.next = add nuw nsw i64 %indvars.iv, 1
  %exitcond.not = icmp eq i64 %indvars.iv.next, 16
  br i1 %exitcond.not, label %12, label %3, !llvm.loop !23

12:                                               ; preds = %11
  %13 = add nuw nsw i32 %.1, 1
  ret i32 %13
}